; Function Attrs: nounwind uwtable
define range(i32 -1, 1) i32 @H5G_loc_info(ptr noundef %0, ptr noundef %1, ptr noundef %2, i32 noundef %3) local_unnamed_addr #0 {
  %5 = alloca %struct.H5G_loc_info_t, align 8
  call void @llvm.lifetime.start.p0(i64 16, ptr nonnull %5) #9
  %6 = load i8, ptr @H5G_init_g, align 1, !tbaa !3, !range !7, !noundef !8
  %7 = trunc nuw i8 %6 to i1
  %8 = load i8, ptr @H5_libterm_g, align 1, !range !7
  %9 = trunc nuw i8 %8 to i1
  %10 = select i1 %7, i1 true, i1 %9
  br i1 %10, label %18, label %11, !prof !9

11:                                               ; preds = %4
  store i8 1, ptr @H5G_init_g, align 1, !tbaa !3
  %12 = tail call i32 @H5G__init_package() #9
  %13 = icmp slt i32 %12, 0
  br i1 %13, label %14, label %._crit_edge

._crit_edge:                                      ; preds = %11
  %.pre = load i8, ptr @H5G_init_g, align 1, !tbaa !3, !range !7
  %.pre6 = load i8, ptr @H5_libterm_g, align 1, !range !7
  %.pre7 = trunc nuw i8 %.pre to i1
  %.pre8 = trunc nuw i8 %.pre6 to i1
  br label %18

14:                                               ; preds = %11
  store i8 0, ptr @H5G_init_g, align 1, !tbaa !3
  %15 = load i64, ptr @H5E_FUNC_g, align 8, !tbaa !10
  %16 = load i64, ptr @H5E_CANTINIT_g, align 8, !tbaa !10
  %17 = tail call i32 (ptr, ptr, i32, i64, i64, ptr, ...) @H5E_printf_stack(ptr noundef nonnull @.str, ptr noundef nonnull @__func__.H5G_loc_info, i32 noundef 742, i64 noundef %15, i64 noundef %16, ptr noundef nonnull @.str.1) #9
  br label %29

18:                                               ; preds = %._crit_edge, %4
  %.pre-phi9 = phi i1 [ %.pre8, %._crit_edge ], [ %9, %4 ]
  %.pre-phi = phi i1 [ %.pre7, %._crit_edge ], [ %7, %4 ]
  %19 = xor i1 %.pre-phi9, true
  %20 = select i1 %.pre-phi, i1 true, i1 %19
  br i1 %20, label %21, label %29, !prof !9

21:                                               ; preds = %18
  store i32 %3, ptr %5, align 8, !tbaa !39
  %22 = getelementptr inbounds nuw i8, ptr %5, i64 8
  store ptr %2, ptr %22, align 8, !tbaa !42
  %23 = call i32 @H5G_traverse(ptr noundef %0, ptr noundef %1, i32 noundef 0, ptr noundef nonnull @H5G__loc_info_cb, ptr noundef nonnull %5) #9
  %24 = icmp slt i32 %23, 0
  br i1 %24, label %25, label %29

25:                                               ; preds = %21
  %26 = load i64, ptr @H5E_SYM_g, align 8, !tbaa !10
  %27 = load i64, ptr @H5E_NOTFOUND_g, align 8, !tbaa !10
  %28 = call i32 (ptr, ptr, i32, i64, i64, ptr, ...) @H5E_printf_stack(ptr noundef nonnull @.str, ptr noundef nonnull @__func__.H5G_loc_info, i32 noundef 755, i64 noundef %26, i64 noundef %27, ptr noundef nonnull @.str.29) #9
  br label %29

29:                                               ; preds = %14, %25, %21, %18
  %.0 = phi i32 [ -1, %14 ], [ -1, %25 ], [ 0, %21 ], [ 0, %18 ]
  call void @llvm.lifetime.end.p0(i64 16, ptr nonnull %5) #9
  ret i32 %.0
}